ccopy_reg
_reconstructor
p0
(chmmlearn.hmm
GaussianHMM
p1
c__builtin__
object
p2
Ntp3
Rp4
(dp5
S'min_covar'
p6
F0.001
sS'verbose'
p7
I00
sS'transmat_prior'
p8
F1.0
sS'startprob_'
p9
cnumpy.core.multiarray
_reconstruct
p10
(cnumpy
ndarray
p11
(I0
tp12
S'b'
p13
tp14
Rp15
(I1
(I2
tp16
cnumpy
dtype
p17
(S'f8'
p18
I0
I1
tp19
Rp20
(I3
S'<'
p21
NNNI-1
I-1
I0
tp22
bI00
S'.\x19D\xfaJ\x03\xe0?\xa5\xcdw\x0bj\xf9\xdf?'
p23
tp24
bsS'means_'
p25
g10
(g11
(I0
tp26
g13
tp27
Rp28
(I1
(I2
I1
tp29
g20
I00
S'@\xea]v\x19w\xf9\xbe\x9c\x84{S\x1e\xbe\xf9\xbe'
p30
tp31
bsS'monitor_'
p32
g0
(chmmlearn.base
ConvergenceMonitor
p33
g2
Ntp34
Rp35
(dp36
S'n_iter'
p37
I1000
sS'iter'
p38
I3
sg7
I00
sS'tol'
p39
F0.01
sS'history'
p40
ccollections
deque
p41
((lp42
cnumpy.core.multiarray
scalar
p43
(g20
S'E\xbd\xd2f#!\xcd@'
p44
tp45
Rp46
ag43
(g20
S'\x05\xa2"h#!\xcd@'
p47
tp48
Rp49
aI2
tp50
Rp51
sbsS'random_state'
p52
NsS'params'
p53
S'stmc'
p54
sg39
F0.01
sS'init_params'
p55
g54
sS'means_weight'
p56
I0
sS'covariance_type'
p57
S'full'
p58
sS'startprob_prior'
p59
F1.0
sS'means_prior'
p60
I0
sS'covars_weight'
p61
I1
sS'transmat_'
p62
g10
(g11
(I0
tp63
g13
tp64
Rp65
(I1
(I2
I2
tp66
g20
I00
S'\x82\x81V\xe4\x80\x02\xe0?\xfd\xfcR7\xfe\xfa\xdf?\xbd\xbe\xe6\x16\x81\x02\xe0?\x87\x822\xd2\xfd\xfa\xdf?'
p67
tp68
bsg37
I1000
sS'_covars_'
p69
g10
(g11
(I0
tp70
g13
tp71
Rp72
(I1
(I2
I1
I1
tp73
g20
I00
S'\xe4\xb9X\r\xc0\\\xe1>\xec\xdb\xf9\xae\x0cb\xe1>'
p74
tp75
bsS'algorithm'
p76
S'viterbi'
p77
sS'n_components'
p78
I2
sS'n_features'
p79
I1
sS'covars_prior'
p80
F0.01
sb.